; Function Attrs: nounwind uwtable
define void @php_random_status_free(ptr noundef %0, i1 noundef zeroext %1) local_unnamed_addr #0 {
  br i1 %1, label %3, label %4

3:                                                ; preds = %2
  tail call void @free(ptr noundef %0) #13
  br label %5

4:                                                ; preds = %2
  tail call void @_efree(ptr noundef %0) #13
  br label %5

5:                                                ; preds = %4, %3
  ret void
}